target datalayout = "e-m:e-p270:32:32-p271:32:32-p272:64:64-i64:64-i128:128-f80:128-n8:16:32:64-S128"
target triple = "x86_64-pc-linux-gnu"

%struct.attr_check = type { i32, i32, ptr, i32, ptr, ptr }
%struct.attr_check_item = type { ptr, ptr }

@.str.19 = private unnamed_addr constant [27 x i8] c"size_t overflow: %lu * %lu\00", align 1

; Function Attrs: inlinehint nounwind uwtable
define internal i64 @st_mult(i64 noundef %0, i64 noundef %1) #5 {
  %3 = alloca i64, align 8
  %4 = alloca i64, align 8
  store i64 %0, ptr %3, align 8, !tbaa !11
  store i64 %1, ptr %4, align 8, !tbaa !11
  %5 = load i64, ptr %3, align 8, !tbaa !11
  %6 = icmp ne i64 %5, 0
  br i1 %6, label %7, label %15

7:                                                ; preds = %2
  %8 = load i64, ptr %4, align 8, !tbaa !11
  %9 = load i64, ptr %3, align 8, !tbaa !11
  %10 = udiv i64 -1, %9
  %11 = icmp ugt i64 %8, %10
  br i1 %11, label %12, label %15

12:                                               ; preds = %7
  %13 = load i64, ptr %3, align 8, !tbaa !11
  %14 = load i64, ptr %4, align 8, !tbaa !11
  call void (ptr, ...) @die(ptr noundef @.str.19, i64 noundef %13, i64 noundef %14) #12
  unreachable

15:                                               ; preds = %7, %2
  %16 = load i64, ptr %3, align 8, !tbaa !11
  %17 = load i64, ptr %4, align 8, !tbaa !11
  %18 = mul i64 %16, %17
  ret i64 %18
}

; Function Attrs: nounwind uwtable
define dso_local ptr @attr_check_append(ptr noundef %0, ptr noundef %1) #0 {
  %3 = alloca ptr, align 8
  %4 = alloca ptr, align 8
  %5 = alloca ptr, align 8
  store ptr %0, ptr %3, align 8, !tbaa !32
  store ptr %1, ptr %4, align 8, !tbaa !4
  call void @llvm.lifetime.start.p0(i64 8, ptr %5) #11
  br label %6

6:                                                ; preds = %2
  %7 = load ptr, ptr %3, align 8, !tbaa !32
  %8 = getelementptr inbounds nuw %struct.attr_check, ptr %7, i32 0, i32 0
  %9 = load i32, ptr %8, align 8, !tbaa !40
  %10 = add nsw i32 %9, 1
  %11 = load ptr, ptr %3, align 8, !tbaa !32
  %12 = getelementptr inbounds nuw %struct.attr_check, ptr %11, i32 0, i32 1
  %13 = load i32, ptr %12, align 4, !tbaa !45
  %14 = icmp sgt i32 %10, %13
  br i1 %14, label %15, label %55

15:                                               ; preds = %6
  %16 = load ptr, ptr %3, align 8, !tbaa !32
  %17 = getelementptr inbounds nuw %struct.attr_check, ptr %16, i32 0, i32 1
  %18 = load i32, ptr %17, align 4, !tbaa !45
  %19 = add nsw i32 %18, 16
  %20 = mul nsw i32 %19, 3
  %21 = sdiv i32 %20, 2
  %22 = load ptr, ptr %3, align 8, !tbaa !32
  %23 = getelementptr inbounds nuw %struct.attr_check, ptr %22, i32 0, i32 0
  %24 = load i32, ptr %23, align 8, !tbaa !40
  %25 = add nsw i32 %24, 1
  %26 = icmp slt i32 %21, %25
  br i1 %26, label %27, label %34

27:                                               ; preds = %15
  %28 = load ptr, ptr %3, align 8, !tbaa !32
  %29 = getelementptr inbounds nuw %struct.attr_check, ptr %28, i32 0, i32 0
  %30 = load i32, ptr %29, align 8, !tbaa !40
  %31 = add nsw i32 %30, 1
  %32 = load ptr, ptr %3, align 8, !tbaa !32
  %33 = getelementptr inbounds nuw %struct.attr_check, ptr %32, i32 0, i32 1
  store i32 %31, ptr %33, align 4, !tbaa !45
  br label %43

34:                                               ; preds = %15
  %35 = load ptr, ptr %3, align 8, !tbaa !32
  %36 = getelementptr inbounds nuw %struct.attr_check, ptr %35, i32 0, i32 1
  %37 = load i32, ptr %36, align 4, !tbaa !45
  %38 = add nsw i32 %37, 16
  %39 = mul nsw i32 %38, 3
  %40 = sdiv i32 %39, 2
  %41 = load ptr, ptr %3, align 8, !tbaa !32
  %42 = getelementptr inbounds nuw %struct.attr_check, ptr %41, i32 0, i32 1
  store i32 %40, ptr %42, align 4, !tbaa !45
  br label %43

43:                                               ; preds = %34, %27
  %44 = load ptr, ptr %3, align 8, !tbaa !32
  %45 = getelementptr inbounds nuw %struct.attr_check, ptr %44, i32 0, i32 2
  %46 = load ptr, ptr %45, align 8, !tbaa !46
  %47 = load ptr, ptr %3, align 8, !tbaa !32
  %48 = getelementptr inbounds nuw %struct.attr_check, ptr %47, i32 0, i32 1
  %49 = load i32, ptr %48, align 4, !tbaa !45
  %50 = sext i32 %49 to i64
  %51 = call i64 @st_mult(i64 noundef 16, i64 noundef %50)
  %52 = call ptr @xrealloc(ptr noundef %46, i64 noundef %51)
  %53 = load ptr, ptr %3, align 8, !tbaa !32
  %54 = getelementptr inbounds nuw %struct.attr_check, ptr %53, i32 0, i32 2
  store ptr %52, ptr %54, align 8, !tbaa !46
  br label %55

55:                                               ; preds = %43, %6
  br label %56

56:                                               ; preds = %55
  br label %57

57:                                               ; preds = %56
  %58 = load ptr, ptr %3, align 8, !tbaa !32
  %59 = getelementptr inbounds nuw %struct.attr_check, ptr %58, i32 0, i32 2
  %60 = load ptr, ptr %59, align 8, !tbaa !46
  %61 = load ptr, ptr %3, align 8, !tbaa !32
  %62 = getelementptr inbounds nuw %struct.attr_check, ptr %61, i32 0, i32 0
  %63 = load i32, ptr %62, align 8, !tbaa !40
  %64 = add nsw i32 %63, 1
  store i32 %64, ptr %62, align 8, !tbaa !40
  %65 = sext i32 %63 to i64
  %66 = getelementptr inbounds %struct.attr_check_item, ptr %60, i64 %65
  store ptr %66, ptr %5, align 8, !tbaa !51
  %67 = load ptr, ptr %4, align 8, !tbaa !4
  %68 = load ptr, ptr %5, align 8, !tbaa !51
  %69 = getelementptr inbounds nuw %struct.attr_check_item, ptr %68, i32 0, i32 0
  store ptr %67, ptr %69, align 8, !tbaa !47
  %70 = load ptr, ptr %5, align 8, !tbaa !51
  call void @llvm.lifetime.end.p0(i64 8, ptr %5) #11
  ret ptr %70
}