; Function Attrs: nounwind uwtable
define dso_local noundef ptr @attr_check_append(ptr noundef captures(none) %0, ptr noundef %1) local_unnamed_addr #1 {
  %3 = load i32, ptr %0, align 8, !tbaa !45
  %4 = getelementptr inbounds nuw i8, ptr %0, i64 4
  %5 = load i32, ptr %4, align 4, !tbaa !50
  %.not = icmp slt i32 %3, %5
  br i1 %.not, label %._crit_edge, label %6

._crit_edge:                                      ; preds = %2
  %.phi.trans.insert = getelementptr inbounds nuw i8, ptr %0, i64 8
  %.pre = load ptr, ptr %.phi.trans.insert, align 8, !tbaa !51
  br label %17

6:                                                ; preds = %2
  %7 = add nsw i32 %3, 1
  %8 = mul i32 %5, 3
  %9 = add i32 %8, 48
  %10 = sdiv i32 %9, 2
  %.not18 = icmp sgt i32 %10, %3
  %. = select i1 %.not18, i32 %10, i32 %7
  store i32 %., ptr %4, align 4, !tbaa !50
  %11 = sext i32 %. to i64
  %mul.ov.i = icmp slt i32 %., 0
  br i1 %mul.ov.i, label %12, label %st_mult.exit

12:                                               ; preds = %6
  tail call void (ptr, ...) @die(ptr noundef nonnull @.str.19, i64 noundef 16, i64 noundef %11) #22
  unreachable

st_mult.exit:                                     ; preds = %6
  %13 = getelementptr inbounds nuw i8, ptr %0, i64 8
  %14 = load ptr, ptr %13, align 8, !tbaa !51
  %15 = shl nuw nsw i64 %11, 4
  %16 = tail call ptr @xrealloc(ptr noundef %14, i64 noundef %15) #21
  store ptr %16, ptr %13, align 8, !tbaa !51
  %.pre19 = load i32, ptr %0, align 8, !tbaa !45
  br label %17

17:                                               ; preds = %._crit_edge, %st_mult.exit
  %18 = phi i32 [ %3, %._crit_edge ], [ %.pre19, %st_mult.exit ]
  %19 = phi ptr [ %.pre, %._crit_edge ], [ %16, %st_mult.exit ]
  %20 = add nsw i32 %18, 1
  store i32 %20, ptr %0, align 8, !tbaa !45
  %21 = sext i32 %18 to i64
  %22 = getelementptr inbounds %struct.attr_check_item, ptr %19, i64 %21
  store ptr %1, ptr %22, align 8, !tbaa !52
  ret ptr %22
}